target datalayout = "e-m:e-p270:32:32-p271:32:32-p272:64:64-i64:64-i128:128-f80:128-n8:16:32:64-S128"
target triple = "x86_64-pc-linux-gnu"

%struct.ident_t = type { i32, i32, i32, i32, ptr }
%"class.ncnn::Mat" = type { ptr, ptr, i64, i32, ptr, i32, i32, i32, i32, i32, i64 }

@1 = private unnamed_addr constant %struct.ident_t { i32 0, i32 514, i32 0, i32 22, ptr @0 }, align 8

; Function Attrs: noinline noreturn nounwind uwtable
define linkonce_odr hidden void @__clang_call_terminate(ptr noundef %0) #6 comdat {
  %2 = call ptr @__cxa_begin_catch(ptr %0) #10
  call void @_ZSt9terminatev() #15
  unreachable
}

; Function Attrs: alwaysinline mustprogress nounwind uwtable
define linkonce_odr hidden noundef nonnull align 4 dereferenceable(4) ptr @_ZN4ncnn3MatixEm(ptr noundef nonnull align 8 dereferenceable(72) %0, i64 noundef %1) #3 comdat align 2 {
  %3 = alloca ptr, align 8
  %4 = alloca i64, align 8
  store ptr %0, ptr %3, align 8, !tbaa !45
  store i64 %1, ptr %4, align 8, !tbaa !69
  %5 = load ptr, ptr %3, align 8
  %6 = getelementptr inbounds nuw %"class.ncnn::Mat", ptr %5, i32 0, i32 0
  %7 = load ptr, ptr %6, align 8, !tbaa !58
  %8 = load i64, ptr %4, align 8, !tbaa !69
  %9 = getelementptr inbounds nuw float, ptr %7, i64 %8
  ret ptr %9
}

; Function Attrs: alwaysinline mustprogress nounwind uwtable
define linkonce_odr hidden noundef ptr @_ZN4ncnn3Mat3rowEi(ptr noundef nonnull align 8 dereferenceable(72) %0, i32 noundef %1) #3 comdat align 2 {
  %3 = alloca ptr, align 8
  %4 = alloca i32, align 4
  store ptr %0, ptr %3, align 8, !tbaa !45
  store i32 %1, ptr %4, align 4, !tbaa !40
  %5 = load ptr, ptr %3, align 8
  %6 = getelementptr inbounds nuw %"class.ncnn::Mat", ptr %5, i32 0, i32 0
  %7 = load ptr, ptr %6, align 8, !tbaa !58
  %8 = getelementptr inbounds nuw %"class.ncnn::Mat", ptr %5, i32 0, i32 6
  %9 = load i32, ptr %8, align 4, !tbaa !64
  %10 = sext i32 %9 to i64
  %11 = load i32, ptr %4, align 4, !tbaa !40
  %12 = sext i32 %11 to i64
  %13 = mul i64 %10, %12
  %14 = getelementptr inbounds nuw %"class.ncnn::Mat", ptr %5, i32 0, i32 2
  %15 = load i64, ptr %14, align 8, !tbaa !60
  %16 = mul i64 %13, %15
  %17 = getelementptr inbounds nuw i8, ptr %7, i64 %16
  ret ptr %17
}

; Function Attrs: alwaysinline norecurse nounwind uwtable
define internal void @_ZN4ncnnL9lstm_int8ERKNS_3MatERS0_iS2_PKfS2_S2_S5_S2_S3_S3_RKNS_6OptionE.omp_outlined.1(ptr noalias noundef %0, ptr noalias noundef %1, ptr noundef nonnull align 4 dereferenceable(4) %2, ptr noundef nonnull align 8 dereferenceable(72) %3, ptr noundef nonnull align 8 dereferenceable(72) %4, ptr noundef nonnull align 4 dereferenceable(4) %5, ptr noundef nonnull align 8 dereferenceable(72) %6, ptr noundef nonnull align 8 dereferenceable(8) %7, ptr noundef nonnull align 8 dereferenceable(72) %8) #9 personality ptr @__gxx_personality_v0 {
  %10 = alloca ptr, align 8
  %11 = alloca ptr, align 8
  %12 = alloca ptr, align 8
  %13 = alloca ptr, align 8
  %14 = alloca ptr, align 8
  %15 = alloca ptr, align 8
  %16 = alloca ptr, align 8
  %17 = alloca ptr, align 8
  %18 = alloca ptr, align 8
  %19 = alloca ptr, align 8
  %20 = alloca ptr, align 8
  %21 = alloca i32, align 4
  %22 = alloca i32, align 4
  %23 = alloca i32, align 4
  %24 = alloca i32, align 4
  %25 = alloca i32, align 4
  %26 = alloca i32, align 4
  %27 = alloca i32, align 4
  %28 = alloca i32, align 4
  %29 = alloca i32, align 4
  %30 = alloca ptr, align 8
  %31 = alloca float, align 4
  %32 = alloca float, align 4
  %33 = alloca float, align 4
  %34 = alloca float, align 4
  %35 = alloca float, align 4
  %36 = alloca float, align 4
  store ptr %0, ptr %10, align 8, !tbaa !85
  store ptr %1, ptr %11, align 8, !tbaa !85
  store ptr %2, ptr %12, align 8, !tbaa !85
  store ptr %3, ptr %13, align 8, !tbaa !45
  store ptr %4, ptr %14, align 8, !tbaa !45
  store ptr %5, ptr %15, align 8, !tbaa !85
  store ptr %6, ptr %16, align 8, !tbaa !45
  store ptr %7, ptr %17, align 8, !tbaa !86
  store ptr %8, ptr %18, align 8, !tbaa !45
  %37 = load ptr, ptr %12, align 8, !tbaa !85
  %38 = load ptr, ptr %13, align 8, !tbaa !45
  %39 = load ptr, ptr %14, align 8, !tbaa !45
  %40 = load ptr, ptr %15, align 8, !tbaa !85
  %41 = load ptr, ptr %16, align 8, !tbaa !45
  %42 = load ptr, ptr %17, align 8, !tbaa !86
  %43 = load ptr, ptr %18, align 8, !tbaa !45
  store ptr %39, ptr %19, align 8
  store ptr %41, ptr %20, align 8
  call void @llvm.lifetime.start.p0(i64 4, ptr %21) #10
  call void @llvm.lifetime.start.p0(i64 4, ptr %22) #10
  %44 = load i32, ptr %37, align 4, !tbaa !40
  store i32 %44, ptr %22, align 4, !tbaa !40
  call void @llvm.lifetime.start.p0(i64 4, ptr %23) #10
  %45 = load i32, ptr %22, align 4, !tbaa !40
  %46 = sub nsw i32 %45, 0
  %47 = sdiv i32 %46, 1
  %48 = sub nsw i32 %47, 1
  store i32 %48, ptr %23, align 4, !tbaa !40
  call void @llvm.lifetime.start.p0(i64 4, ptr %24) #10
  store i32 0, ptr %24, align 4, !tbaa !40
  call void @llvm.lifetime.end.p0(i64 4, ptr %24) #10
  %49 = load i32, ptr %22, align 4, !tbaa !40
  %50 = icmp slt i32 0, %49
  br i1 %50, label %51, label %158

51:                                               ; preds = %9
  call void @llvm.lifetime.start.p0(i64 4, ptr %25) #10
  store i32 0, ptr %25, align 4, !tbaa !40
  call void @llvm.lifetime.start.p0(i64 4, ptr %26) #10
  %52 = load i32, ptr %23, align 4, !tbaa !40
  store i32 %52, ptr %26, align 4, !tbaa !40
  call void @llvm.lifetime.start.p0(i64 4, ptr %27) #10
  store i32 1, ptr %27, align 4, !tbaa !40
  call void @llvm.lifetime.start.p0(i64 4, ptr %28) #10
  store i32 0, ptr %28, align 4, !tbaa !40
  call void @llvm.lifetime.start.p0(i64 4, ptr %29) #10
  %53 = load ptr, ptr %10, align 8
  %54 = load i32, ptr %53, align 4, !tbaa !40
  call void @__kmpc_for_static_init_4(ptr @1, i32 %54, i32 34, ptr %28, ptr %25, ptr %26, ptr %27, i32 1, i32 1)
  %55 = load i32, ptr %26, align 4, !tbaa !40
  %56 = load i32, ptr %23, align 4, !tbaa !40
  %57 = icmp sgt i32 %55, %56
  br i1 %57, label %58, label %60

58:                                               ; preds = %51
  %59 = load i32, ptr %23, align 4, !tbaa !40
  br label %62

60:                                               ; preds = %51
  %61 = load i32, ptr %26, align 4, !tbaa !40
  br label %62

62:                                               ; preds = %60, %58
  %63 = phi i32 [ %59, %58 ], [ %61, %60 ]
  store i32 %63, ptr %26, align 4, !tbaa !40
  %64 = load i32, ptr %25, align 4, !tbaa !40
  store i32 %64, ptr %21, align 4, !tbaa !40
  br label %65

65:                                               ; preds = %151, %62
  %66 = load i32, ptr %21, align 4, !tbaa !40
  %67 = load i32, ptr %26, align 4, !tbaa !40
  %68 = icmp sle i32 %66, %67
  br i1 %68, label %70, label %69

69:                                               ; preds = %65
  br label %154

70:                                               ; preds = %65
  %71 = load i32, ptr %21, align 4, !tbaa !40
  %72 = mul nsw i32 %71, 1
  %73 = add nsw i32 0, %72
  store i32 %73, ptr %29, align 4, !tbaa !40
  call void @llvm.lifetime.start.p0(i64 8, ptr %30) #10
  %74 = load i32, ptr %29, align 4, !tbaa !40
  %75 = invoke noundef ptr @_ZN4ncnn3Mat3rowEi(ptr noundef nonnull align 8 dereferenceable(72) %38, i32 noundef %74)
          to label %76 unwind label %159

76:                                               ; preds = %70
  store ptr %75, ptr %30, align 8, !tbaa !51
  call void @llvm.lifetime.start.p0(i64 4, ptr %31) #10
  %77 = load ptr, ptr %30, align 8, !tbaa !51
  %78 = getelementptr inbounds float, ptr %77, i64 0
  %79 = load float, ptr %78, align 4, !tbaa !70
  store float %79, ptr %31, align 4, !tbaa !70
  call void @llvm.lifetime.start.p0(i64 4, ptr %32) #10
  %80 = load ptr, ptr %30, align 8, !tbaa !51
  %81 = getelementptr inbounds float, ptr %80, i64 1
  %82 = load float, ptr %81, align 4, !tbaa !70
  store float %82, ptr %32, align 4, !tbaa !70
  call void @llvm.lifetime.start.p0(i64 4, ptr %33) #10
  %83 = load ptr, ptr %30, align 8, !tbaa !51
  %84 = getelementptr inbounds float, ptr %83, i64 2
  %85 = load float, ptr %84, align 4, !tbaa !70
  store float %85, ptr %33, align 4, !tbaa !70
  call void @llvm.lifetime.start.p0(i64 4, ptr %34) #10
  %86 = load ptr, ptr %30, align 8, !tbaa !51
  %87 = getelementptr inbounds float, ptr %86, i64 3
  %88 = load float, ptr %87, align 4, !tbaa !70
  store float %88, ptr %34, align 4, !tbaa !70
  %89 = load float, ptr %31, align 4, !tbaa !70
  %90 = fneg fast float %89
  %91 = call fast float @llvm.exp.f32(float %90)
  %92 = fadd fast float 1.000000e+00, %91
  %93 = fdiv fast float 1.000000e+00, %92
  store float %93, ptr %31, align 4, !tbaa !70
  %94 = load float, ptr %32, align 4, !tbaa !70
  %95 = fneg fast float %94
  %96 = call fast float @llvm.exp.f32(float %95)
  %97 = fadd fast float 1.000000e+00, %96
  %98 = fdiv fast float 1.000000e+00, %97
  store float %98, ptr %32, align 4, !tbaa !70
  %99 = load float, ptr %33, align 4, !tbaa !70
  %100 = fneg fast float %99
  %101 = call fast float @llvm.exp.f32(float %100)
  %102 = fadd fast float 1.000000e+00, %101
  %103 = fdiv fast float 1.000000e+00, %102
  store float %103, ptr %33, align 4, !tbaa !70
  %104 = load float, ptr %34, align 4, !tbaa !70
  %105 = call fast float @llvm.tanh.f32(float %104)
  store float %105, ptr %34, align 4, !tbaa !70
  call void @llvm.lifetime.start.p0(i64 4, ptr %35) #10
  %106 = load float, ptr %32, align 4, !tbaa !70
  %107 = load ptr, ptr %19, align 8, !tbaa !45
  %108 = load i32, ptr %29, align 4, !tbaa !40
  %109 = sext i32 %108 to i64
  %110 = invoke noundef nonnull align 4 dereferenceable(4) ptr @_ZN4ncnn3MatixEm(ptr noundef nonnull align 8 dereferenceable(72) %107, i64 noundef %109)
          to label %111 unwind label %159

111:                                              ; preds = %76
  %112 = load float, ptr %110, align 4, !tbaa !70
  %113 = fmul fast float %106, %112
  %114 = load float, ptr %31, align 4, !tbaa !70
  %115 = load float, ptr %34, align 4, !tbaa !70
  %116 = fmul fast float %114, %115
  %117 = fadd fast float %113, %116
  store float %117, ptr %35, align 4, !tbaa !70
  call void @llvm.lifetime.start.p0(i64 4, ptr %36) #10
  %118 = load float, ptr %33, align 4, !tbaa !70
  %119 = load float, ptr %35, align 4, !tbaa !70
  %120 = call fast float @llvm.tanh.f32(float %119)
  %121 = fmul fast float %118, %120
  store float %121, ptr %36, align 4, !tbaa !70
  %122 = load float, ptr %35, align 4, !tbaa !70
  %123 = load ptr, ptr %19, align 8, !tbaa !45
  %124 = load i32, ptr %29, align 4, !tbaa !40
  %125 = sext i32 %124 to i64
  %126 = invoke noundef nonnull align 4 dereferenceable(4) ptr @_ZN4ncnn3MatixEm(ptr noundef nonnull align 8 dereferenceable(72) %123, i64 noundef %125)
          to label %127 unwind label %159

127:                                              ; preds = %111
  store float %122, ptr %126, align 4, !tbaa !70
  %128 = load i32, ptr %40, align 4, !tbaa !40
  %129 = load i32, ptr %37, align 4, !tbaa !40
  %130 = icmp eq i32 %128, %129
  br i1 %130, label %131, label %143

131:                                              ; preds = %127
  %132 = load float, ptr %36, align 4, !tbaa !70
  %133 = load ptr, ptr %20, align 8, !tbaa !45
  %134 = load i32, ptr %29, align 4, !tbaa !40
  %135 = sext i32 %134 to i64
  %136 = invoke noundef nonnull align 4 dereferenceable(4) ptr @_ZN4ncnn3MatixEm(ptr noundef nonnull align 8 dereferenceable(72) %133, i64 noundef %135)
          to label %137 unwind label %159

137:                                              ; preds = %131
  store float %132, ptr %136, align 4, !tbaa !70
  %138 = load float, ptr %36, align 4, !tbaa !70
  %139 = load ptr, ptr %42, align 8, !tbaa !51
  %140 = load i32, ptr %29, align 4, !tbaa !40
  %141 = sext i32 %140 to i64
  %142 = getelementptr inbounds float, ptr %139, i64 %141
  store float %138, ptr %142, align 4, !tbaa !70
  br label %149

143:                                              ; preds = %127
  %144 = load float, ptr %36, align 4, !tbaa !70
  %145 = load i32, ptr %29, align 4, !tbaa !40
  %146 = sext i32 %145 to i64
  %147 = invoke noundef nonnull align 4 dereferenceable(4) ptr @_ZN4ncnn3MatixEm(ptr noundef nonnull align 8 dereferenceable(72) %43, i64 noundef %146)
          to label %148 unwind label %159

148:                                              ; preds = %143
  store float %144, ptr %147, align 4, !tbaa !70
  br label %149

149:                                              ; preds = %148, %137
  call void @llvm.lifetime.end.p0(i64 4, ptr %36) #10
  call void @llvm.lifetime.end.p0(i64 4, ptr %35) #10
  call void @llvm.lifetime.end.p0(i64 4, ptr %34) #10
  call void @llvm.lifetime.end.p0(i64 4, ptr %33) #10
  call void @llvm.lifetime.end.p0(i64 4, ptr %32) #10
  call void @llvm.lifetime.end.p0(i64 4, ptr %31) #10
  call void @llvm.lifetime.end.p0(i64 8, ptr %30) #10
  br label %150

150:                                              ; preds = %149
  br label %151

151:                                              ; preds = %150
  %152 = load i32, ptr %21, align 4, !tbaa !40
  %153 = add nsw i32 %152, 1
  store i32 %153, ptr %21, align 4, !tbaa !40
  br label %65

154:                                              ; preds = %69
  br label %155

155:                                              ; preds = %154
  %156 = load ptr, ptr %10, align 8
  %157 = load i32, ptr %156, align 4, !tbaa !40
  call void @__kmpc_for_static_fini(ptr @1, i32 %157)
  call void @llvm.lifetime.end.p0(i64 4, ptr %29) #10
  call void @llvm.lifetime.end.p0(i64 4, ptr %28) #10
  call void @llvm.lifetime.end.p0(i64 4, ptr %27) #10
  call void @llvm.lifetime.end.p0(i64 4, ptr %26) #10
  call void @llvm.lifetime.end.p0(i64 4, ptr %25) #10
  br label %158

158:                                              ; preds = %155, %9
  call void @llvm.lifetime.end.p0(i64 4, ptr %23) #10
  call void @llvm.lifetime.end.p0(i64 4, ptr %22) #10
  call void @llvm.lifetime.end.p0(i64 4, ptr %21) #10
  ret void

159:                                              ; preds = %143, %131, %111, %76, %70
  %160 = landingpad { ptr, i32 }
          catch ptr null
  %161 = extractvalue { ptr, i32 } %160, 0
  call void @__clang_call_terminate(ptr %161) #15
  unreachable
}